; Function Attrs: nounwind uwtable
define noalias noundef ptr @Acb_GenerateInstance(ptr noundef readonly captures(none) %0, ptr noundef readonly captures(none) %1, ptr noundef readonly captures(none) %2, ptr noundef readonly captures(none) %3) local_unnamed_addr #0 {
  %5 = tail call noalias dereferenceable_or_null(16) ptr @malloc(i64 noundef 16) #29
  %6 = getelementptr inbounds nuw i8, ptr %5, i64 4
  store i32 0, ptr %6, align 4
  store i32 100, ptr %5, align 8
  %7 = tail call noalias dereferenceable_or_null(100) ptr @malloc(i64 noundef 100) #29
  %8 = getelementptr inbounds nuw i8, ptr %5, i64 8
  store ptr %7, ptr %8, align 8
  tail call fastcc void @Vec_StrAppend(ptr noundef nonnull %5, ptr noundef nonnull @.str.69)
  %9 = getelementptr i8, ptr %3, i64 4
  %.val2739 = load i32, ptr %9, align 4
  %10 = icmp sgt i32 %.val2739, 0
  br i1 %10, label %.lr.ph, label %.critedge.preheader

.lr.ph:                                           ; preds = %4
  %11 = getelementptr i8, ptr %3, i64 8
  %12 = getelementptr i8, ptr %0, i64 232
  br label %18

.critedge.preheader:                              ; preds = %18, %4
  %13 = getelementptr i8, ptr %2, i64 4
  %.val41 = load i32, ptr %13, align 4
  %14 = icmp sgt i32 %.val41, 0
  br i1 %14, label %.lr.ph43, label %.critedge2

.lr.ph43:                                         ; preds = %.critedge.preheader
  %15 = getelementptr i8, ptr %2, i64 8
  %16 = getelementptr i8, ptr %1, i64 8
  %17 = getelementptr i8, ptr %0, i64 232
  br label %.critedge

18:                                               ; preds = %.lr.ph, %18
  %indvars.iv = phi i64 [ 0, %.lr.ph ], [ %indvars.iv.next, %18 ]
  %.val30 = load ptr, ptr %11, align 8
  %19 = getelementptr inbounds nuw i32, ptr %.val30, i64 %indvars.iv
  %20 = load i32, ptr %19, align 4
  %.not = icmp eq i64 %indvars.iv, 0
  %21 = select i1 %.not, ptr @.str.23, ptr @.str.71
  %.val37 = load ptr, ptr %0, align 8
  %.val38 = load ptr, ptr %12, align 8
  %22 = getelementptr i8, ptr %.val37, i64 16
  %.val37.val = load ptr, ptr %22, align 8
  %23 = sext i32 %20 to i64
  %24 = getelementptr inbounds i32, ptr %.val38, i64 %23
  %25 = load i32, ptr %24, align 4
  %26 = tail call ptr @Abc_NamStr(ptr noundef %.val37.val, i32 noundef %25) #31
  %.val35 = load ptr, ptr %0, align 8
  %.val36 = load ptr, ptr %12, align 8
  %27 = getelementptr i8, ptr %.val35, i64 16
  %.val35.val = load ptr, ptr %27, align 8
  %28 = getelementptr inbounds i32, ptr %.val36, i64 %23
  %29 = load i32, ptr %28, align 4
  %30 = tail call ptr @Abc_NamStr(ptr noundef %.val35.val, i32 noundef %29) #31
  tail call void (ptr, ptr, ...) @Vec_StrPrintF(ptr noundef nonnull %5, ptr noundef nonnull @.str.70, ptr noundef nonnull %21, ptr noundef %26, ptr noundef %30)
  %indvars.iv.next = add nuw nsw i64 %indvars.iv, 1
  %.val27 = load i32, ptr %9, align 4
  %31 = sext i32 %.val27 to i64
  %32 = icmp slt i64 %indvars.iv.next, %31
  br i1 %32, label %18, label %.critedge.preheader, !llvm.loop !142

.critedge:                                        ; preds = %.lr.ph43, %.critedge
  %indvars.iv45 = phi i64 [ 0, %.lr.ph43 ], [ %indvars.iv.next46, %.critedge ]
  %.val29 = load ptr, ptr %15, align 8
  %33 = getelementptr inbounds nuw i32, ptr %.val29, i64 %indvars.iv45
  %34 = load i32, ptr %33, align 4
  %.val28 = load ptr, ptr %16, align 8
  %35 = sext i32 %34 to i64
  %36 = getelementptr inbounds i32, ptr %.val28, i64 %35
  %37 = load i32, ptr %36, align 4
  %.val33 = load ptr, ptr %0, align 8
  %.val34 = load ptr, ptr %17, align 8
  %38 = getelementptr i8, ptr %.val33, i64 16
  %.val33.val = load ptr, ptr %38, align 8
  %39 = sext i32 %37 to i64
  %40 = getelementptr inbounds i32, ptr %.val34, i64 %39
  %41 = load i32, ptr %40, align 4
  %42 = tail call ptr @Abc_NamStr(ptr noundef %.val33.val, i32 noundef %41) #31
  %.val31 = load ptr, ptr %0, align 8
  %.val32 = load ptr, ptr %17, align 8
  %43 = getelementptr i8, ptr %.val31, i64 16
  %.val31.val = load ptr, ptr %43, align 8
  %44 = getelementptr inbounds i32, ptr %.val32, i64 %39
  %45 = load i32, ptr %44, align 4
  %46 = tail call ptr @Abc_NamStr(ptr noundef %.val31.val, i32 noundef %45) #31
  tail call void (ptr, ptr, ...) @Vec_StrPrintF(ptr noundef nonnull %5, ptr noundef nonnull @.str.72, ptr noundef %42, ptr noundef %46)
  %indvars.iv.next46 = add nuw nsw i64 %indvars.iv45, 1
  %.val = load i32, ptr %13, align 4
  %47 = sext i32 %.val to i64
  %48 = icmp slt i64 %indvars.iv.next46, %47
  br i1 %48, label %.critedge, label %.critedge2, !llvm.loop !143

.critedge2:                                       ; preds = %.critedge, %.critedge.preheader
  tail call fastcc void @Vec_StrAppend(ptr noundef nonnull %5, ptr noundef nonnull @.str.73)
  %49 = load i32, ptr %6, align 4
  %50 = load i32, ptr %5, align 8
  %51 = icmp eq i32 %49, %50
  br i1 %51, label %52, label %.Vec_StrGrow.exit10_crit_edge.i

.Vec_StrGrow.exit10_crit_edge.i:                  ; preds = %.critedge2
  %.pre.i = load ptr, ptr %8, align 8
  br label %Vec_StrPush.exit

52:                                               ; preds = %.critedge2
  %53 = icmp slt i32 %49, 16
  br i1 %53, label %54, label %61

54:                                               ; preds = %52
  %55 = load ptr, ptr %8, align 8
  %.not9.i.i = icmp eq ptr %55, null
  br i1 %.not9.i.i, label %58, label %56

56:                                               ; preds = %54
  %57 = tail call dereferenceable_or_null(16) ptr @realloc(ptr noundef nonnull %55, i64 noundef 16) #30
  br label %Vec_StrGrow.exit.i

58:                                               ; preds = %54
  %59 = tail call noalias dereferenceable_or_null(16) ptr @malloc(i64 noundef 16) #29
  br label %Vec_StrGrow.exit.i

Vec_StrGrow.exit.i:                               ; preds = %58, %56
  %60 = phi ptr [ %57, %56 ], [ %59, %58 ]
  store ptr %60, ptr %8, align 8
  store i32 16, ptr %5, align 8
  br label %Vec_StrPush.exit

61:                                               ; preds = %52
  %62 = shl nuw nsw i32 %49, 1
  %63 = load ptr, ptr %8, align 8
  %.not9.i9.i = icmp eq ptr %63, null
  %64 = zext nneg i32 %62 to i64
  br i1 %.not9.i9.i, label %67, label %65

65:                                               ; preds = %61
  %66 = tail call ptr @realloc(ptr noundef nonnull %63, i64 noundef %64) #30
  br label %69

67:                                               ; preds = %61
  %68 = tail call noalias ptr @malloc(i64 noundef %64) #29
  br label %69

69:                                               ; preds = %67, %65
  %70 = phi ptr [ %66, %65 ], [ %68, %67 ]
  store ptr %70, ptr %8, align 8
  store i32 %62, ptr %5, align 8
  br label %Vec_StrPush.exit

Vec_StrPush.exit:                                 ; preds = %.Vec_StrGrow.exit10_crit_edge.i, %Vec_StrGrow.exit.i, %69
  %71 = phi ptr [ %.pre.i, %.Vec_StrGrow.exit10_crit_edge.i ], [ %70, %69 ], [ %60, %Vec_StrGrow.exit.i ]
  %72 = add nsw i32 %49, 1
  store i32 %72, ptr %6, align 4
  %73 = sext i32 %49 to i64
  %74 = getelementptr inbounds i8, ptr %71, i64 %73
  store i8 0, ptr %74, align 1
  ret ptr %5
}